; Function Attrs: null_pointer_is_valid sspstrong uwtable
define internal noundef i32 @dissect_nfs2_create_call(ptr noundef %0, ptr noundef %1, ptr noundef %2, ptr noundef readonly captures(none) %3) #0 {
  %5 = alloca i32, align 4
  %6 = alloca ptr, align 8
  call void @llvm.lifetime.start.p0(i64 4, ptr nonnull %5) #22
  call void @llvm.lifetime.start.p0(i64 8, ptr nonnull %6) #22
  store ptr null, ptr %6, align 8
  %7 = call fastcc i32 @dissect_diropargs(ptr noundef %0, i32 noundef 0, ptr noundef %1, ptr noundef %2, ptr noundef nonnull @.str.2246, ptr noundef nonnull %5, ptr noundef nonnull %6, ptr noundef %3)
  %8 = call fastcc i32 @dissect_nfs2_sattr(ptr noundef %0, i32 noundef %7, ptr noundef %2)
  %9 = getelementptr inbounds nuw i8, ptr %1, i64 8
  %10 = load ptr, ptr %9, align 8
  %11 = load i32, ptr %5, align 4
  %12 = load ptr, ptr %6, align 8
  call void (ptr, i32, ptr, ...) @col_append_fstr(ptr noundef %10, i32 noundef 25, ptr noundef nonnull @.str.2247, i32 noundef %11, ptr noundef %12)
  %13 = load i32, ptr %5, align 4
  %14 = load ptr, ptr %6, align 8
  call void (ptr, ptr, ...) @proto_item_append_text(ptr noundef %2, ptr noundef nonnull @.str.2261, i32 noundef %13, ptr noundef %14)
  call void @llvm.lifetime.end.p0(i64 8, ptr nonnull %6) #22
  call void @llvm.lifetime.end.p0(i64 4, ptr nonnull %5) #22
  ret i32 %8
}